target datalayout = "e-m:e-p270:32:32-p271:32:32-p272:64:64-i64:64-i128:128-f80:128-n8:16:32:64-S128"
target triple = "x86_64-pc-linux-gnu"

%struct.PROV_ECX_CTX = type { ptr, ptr, ptr, ptr, i32, i32, ptr, i64, ptr, ptr }
%struct.ossl_param_st = type { ptr, i32, ptr, i64, i64 }

@.str = private unnamed_addr constant [51 x i8] c"../openssl/providers/implementations/kem/ecx_kem.c\00", align 1
@.str.13 = private unnamed_addr constant [5 x i8] c"ikme\00", align 1
@.str.14 = private unnamed_addr constant [10 x i8] c"operation\00", align 1

; Function Attrs: inlinehint nounwind uwtable
define internal i32 @ossl_param_is_empty(ptr noundef %0) #4 {
  %2 = alloca ptr, align 8
  store ptr %0, ptr %2, align 8, !tbaa !32
  %3 = load ptr, ptr %2, align 8, !tbaa !32
  %4 = icmp eq ptr %3, null
  br i1 %4, label %10, label %5

5:                                                ; preds = %1
  %6 = load ptr, ptr %2, align 8, !tbaa !32
  %7 = getelementptr inbounds nuw %struct.ossl_param_st, ptr %6, i32 0, i32 0
  %8 = load ptr, ptr %7, align 8, !tbaa !55
  %9 = icmp eq ptr %8, null
  br label %10

10:                                               ; preds = %5, %1
  %11 = phi i1 [ true, %1 ], [ %9, %5 ]
  %12 = zext i1 %11 to i32
  ret i32 %12
}

; Function Attrs: nounwind uwtable
define internal i32 @ecxkem_set_ctx_params(ptr noundef %0, ptr noundef %1) #0 {
  %3 = alloca i32, align 4
  %4 = alloca ptr, align 8
  %5 = alloca ptr, align 8
  %6 = alloca ptr, align 8
  %7 = alloca ptr, align 8
  %8 = alloca i32, align 4
  %9 = alloca i32, align 4
  %10 = alloca ptr, align 8
  %11 = alloca i64, align 8
  store ptr %0, ptr %4, align 8, !tbaa !16
  store ptr %1, ptr %5, align 8, !tbaa !32
  call void @llvm.lifetime.start.p0(i64 8, ptr %6) #5
  %12 = load ptr, ptr %4, align 8, !tbaa !16
  store ptr %12, ptr %6, align 8, !tbaa !16
  call void @llvm.lifetime.start.p0(i64 8, ptr %7) #5
  call void @llvm.lifetime.start.p0(i64 4, ptr %8) #5
  %13 = load ptr, ptr %6, align 8, !tbaa !16
  %14 = icmp eq ptr %13, null
  br i1 %14, label %15, label %16

15:                                               ; preds = %2
  store i32 0, ptr %3, align 4
  store i32 1, ptr %9, align 4
  br label %82

16:                                               ; preds = %2
  %17 = load ptr, ptr %5, align 8, !tbaa !32
  %18 = call i32 @ossl_param_is_empty(ptr noundef %17)
  %19 = icmp ne i32 %18, 0
  br i1 %19, label %20, label %21

20:                                               ; preds = %16
  store i32 1, ptr %3, align 4
  store i32 1, ptr %9, align 4
  br label %82

21:                                               ; preds = %16
  %22 = load ptr, ptr %5, align 8, !tbaa !32
  %23 = call ptr @OSSL_PARAM_locate_const(ptr noundef %22, ptr noundef @.str.13)
  store ptr %23, ptr %7, align 8, !tbaa !32
  %24 = load ptr, ptr %7, align 8, !tbaa !32
  %25 = icmp ne ptr %24, null
  br i1 %25, label %26, label %58

26:                                               ; preds = %21
  call void @llvm.lifetime.start.p0(i64 8, ptr %10) #5
  store ptr null, ptr %10, align 8, !tbaa !16
  call void @llvm.lifetime.start.p0(i64 8, ptr %11) #5
  store i64 0, ptr %11, align 8, !tbaa !10
  %27 = load ptr, ptr %7, align 8, !tbaa !32
  %28 = getelementptr inbounds nuw %struct.ossl_param_st, ptr %27, i32 0, i32 2
  %29 = load ptr, ptr %28, align 8, !tbaa !39
  %30 = icmp ne ptr %29, null
  br i1 %30, label %31, label %42

31:                                               ; preds = %26
  %32 = load ptr, ptr %7, align 8, !tbaa !32
  %33 = getelementptr inbounds nuw %struct.ossl_param_st, ptr %32, i32 0, i32 3
  %34 = load i64, ptr %33, align 8, !tbaa !41
  %35 = icmp ne i64 %34, 0
  br i1 %35, label %36, label %42

36:                                               ; preds = %31
  %37 = load ptr, ptr %7, align 8, !tbaa !32
  %38 = call i32 @OSSL_PARAM_get_octet_string(ptr noundef %37, ptr noundef %10, i64 noundef 0, ptr noundef %11)
  %39 = icmp ne i32 %38, 0
  br i1 %39, label %41, label %40

40:                                               ; preds = %36
  store i32 0, ptr %3, align 4
  store i32 1, ptr %9, align 4
  br label %55

41:                                               ; preds = %36
  br label %42

42:                                               ; preds = %41, %31, %26
  %43 = load ptr, ptr %6, align 8, !tbaa !16
  %44 = getelementptr inbounds nuw %struct.PROV_ECX_CTX, ptr %43, i32 0, i32 6
  %45 = load ptr, ptr %44, align 8, !tbaa !37
  %46 = load ptr, ptr %6, align 8, !tbaa !16
  %47 = getelementptr inbounds nuw %struct.PROV_ECX_CTX, ptr %46, i32 0, i32 7
  %48 = load i64, ptr %47, align 8, !tbaa !38
  call void @CRYPTO_clear_free(ptr noundef %45, i64 noundef %48, ptr noundef @.str, i32 noundef 263)
  %49 = load ptr, ptr %10, align 8, !tbaa !16
  %50 = load ptr, ptr %6, align 8, !tbaa !16
  %51 = getelementptr inbounds nuw %struct.PROV_ECX_CTX, ptr %50, i32 0, i32 6
  store ptr %49, ptr %51, align 8, !tbaa !37
  %52 = load i64, ptr %11, align 8, !tbaa !10
  %53 = load ptr, ptr %6, align 8, !tbaa !16
  %54 = getelementptr inbounds nuw %struct.PROV_ECX_CTX, ptr %53, i32 0, i32 7
  store i64 %52, ptr %54, align 8, !tbaa !38
  store i32 0, ptr %9, align 4
  br label %55

55:                                               ; preds = %42, %40
  call void @llvm.lifetime.end.p0(i64 8, ptr %11) #5
  call void @llvm.lifetime.end.p0(i64 8, ptr %10) #5
  %56 = load i32, ptr %9, align 4
  switch i32 %56, label %82 [
    i32 0, label %57
  ]

57:                                               ; preds = %55
  br label %58

58:                                               ; preds = %57, %21
  %59 = load ptr, ptr %5, align 8, !tbaa !32
  %60 = call ptr @OSSL_PARAM_locate_const(ptr noundef %59, ptr noundef @.str.14)
  store ptr %60, ptr %7, align 8, !tbaa !32
  %61 = load ptr, ptr %7, align 8, !tbaa !32
  %62 = icmp ne ptr %61, null
  br i1 %62, label %63, label %81

63:                                               ; preds = %58
  %64 = load ptr, ptr %7, align 8, !tbaa !32
  %65 = getelementptr inbounds nuw %struct.ossl_param_st, ptr %64, i32 0, i32 1
  %66 = load i32, ptr %65, align 8, !tbaa !42
  %67 = icmp ne i32 %66, 4
  br i1 %67, label %68, label %69

68:                                               ; preds = %63
  store i32 0, ptr %3, align 4
  store i32 1, ptr %9, align 4
  br label %82

69:                                               ; preds = %63
  %70 = load ptr, ptr %7, align 8, !tbaa !32
  %71 = getelementptr inbounds nuw %struct.ossl_param_st, ptr %70, i32 0, i32 2
  %72 = load ptr, ptr %71, align 8, !tbaa !39
  %73 = call i32 @ossl_eckem_modename2id(ptr noundef %72)
  store i32 %73, ptr %8, align 4, !tbaa !12
  %74 = load i32, ptr %8, align 4, !tbaa !12
  %75 = icmp eq i32 %74, 0
  br i1 %75, label %76, label %77

76:                                               ; preds = %69
  store i32 0, ptr %3, align 4
  store i32 1, ptr %9, align 4
  br label %82

77:                                               ; preds = %69
  %78 = load i32, ptr %8, align 4, !tbaa !12
  %79 = load ptr, ptr %6, align 8, !tbaa !16
  %80 = getelementptr inbounds nuw %struct.PROV_ECX_CTX, ptr %79, i32 0, i32 4
  store i32 %78, ptr %80, align 8, !tbaa !36
  br label %81

81:                                               ; preds = %77, %58
  store i32 1, ptr %3, align 4
  store i32 1, ptr %9, align 4
  br label %82

82:                                               ; preds = %81, %76, %68, %55, %20, %15
  call void @llvm.lifetime.end.p0(i64 4, ptr %8) #5
  call void @llvm.lifetime.end.p0(i64 8, ptr %7) #5
  call void @llvm.lifetime.end.p0(i64 8, ptr %6) #5
  %83 = load i32, ptr %3, align 4
  ret i32 %83
}