; Function Attrs: nounwind uwtable
define internal range(i32 0, 2) i32 @ecxkem_set_ctx_params(ptr noundef captures(address_is_null) %0, ptr noundef %1) #0 {
  %3 = alloca ptr, align 8
  %4 = alloca i64, align 8
  %5 = icmp eq ptr %0, null
  br i1 %5, label %ossl_param_is_empty.exit.thread, label %6

6:                                                ; preds = %2
  %7 = icmp eq ptr %1, null
  br i1 %7, label %ossl_param_is_empty.exit.thread, label %ossl_param_is_empty.exit

ossl_param_is_empty.exit:                         ; preds = %6
  %8 = load ptr, ptr %1, align 8, !tbaa !41
  %.not = icmp eq ptr %8, null
  br i1 %.not, label %ossl_param_is_empty.exit.thread, label %9

9:                                                ; preds = %ossl_param_is_empty.exit
  %10 = tail call ptr @OSSL_PARAM_locate_const(ptr noundef nonnull %1, ptr noundef nonnull @.str.13) #5
  %.not25 = icmp eq ptr %10, null
  br i1 %.not25, label %26, label %11

11:                                               ; preds = %9
  call void @llvm.lifetime.start.p0(i64 8, ptr nonnull %3) #5
  store ptr null, ptr %3, align 8, !tbaa !40
  call void @llvm.lifetime.start.p0(i64 8, ptr nonnull %4) #5
  store i64 0, ptr %4, align 8, !tbaa !31
  %12 = getelementptr inbounds nuw i8, ptr %10, i64 16
  %13 = load ptr, ptr %12, align 8, !tbaa !43
  %.not26 = icmp eq ptr %13, null
  br i1 %.not26, label %.critedge, label %14

14:                                               ; preds = %11
  %15 = getelementptr inbounds nuw i8, ptr %10, i64 24
  %16 = load i64, ptr %15, align 8, !tbaa !44
  %.not27 = icmp eq i64 %16, 0
  br i1 %.not27, label %.critedge, label %17

17:                                               ; preds = %14
  %18 = call i32 @OSSL_PARAM_get_octet_string(ptr noundef nonnull %10, ptr noundef nonnull %3, i64 noundef 0, ptr noundef nonnull %4) #5
  %.not28 = icmp eq i32 %18, 0
  br i1 %.not28, label %25, label %.critedge

.critedge:                                        ; preds = %17, %14, %11
  %19 = getelementptr inbounds nuw i8, ptr %0, i64 40
  %20 = load ptr, ptr %19, align 8, !tbaa !32
  %21 = getelementptr inbounds nuw i8, ptr %0, i64 48
  %22 = load i64, ptr %21, align 8, !tbaa !33
  call void @CRYPTO_clear_free(ptr noundef %20, i64 noundef %22, ptr noundef nonnull @.str, i32 noundef 263) #5
  %23 = load ptr, ptr %3, align 8, !tbaa !40
  store ptr %23, ptr %19, align 8, !tbaa !32
  %24 = load i64, ptr %4, align 8, !tbaa !31
  store i64 %24, ptr %21, align 8, !tbaa !33
  call void @llvm.lifetime.end.p0(i64 8, ptr nonnull %4) #5
  call void @llvm.lifetime.end.p0(i64 8, ptr nonnull %3) #5
  br label %26

25:                                               ; preds = %17
  call void @llvm.lifetime.end.p0(i64 8, ptr nonnull %4) #5
  call void @llvm.lifetime.end.p0(i64 8, ptr nonnull %3) #5
  br label %ossl_param_is_empty.exit.thread

26:                                               ; preds = %.critedge, %9
  %27 = call ptr @OSSL_PARAM_locate_const(ptr noundef nonnull %1, ptr noundef nonnull @.str.14) #5
  %.not29 = icmp eq ptr %27, null
  br i1 %.not29, label %ossl_param_is_empty.exit.thread, label %28

28:                                               ; preds = %26
  %29 = getelementptr inbounds nuw i8, ptr %27, i64 8
  %30 = load i32, ptr %29, align 8, !tbaa !45
  %.not30 = icmp eq i32 %30, 4
  br i1 %.not30, label %31, label %ossl_param_is_empty.exit.thread

31:                                               ; preds = %28
  %32 = getelementptr inbounds nuw i8, ptr %27, i64 16
  %33 = load ptr, ptr %32, align 8, !tbaa !43
  %34 = call i32 @ossl_eckem_modename2id(ptr noundef %33) #5
  %35 = icmp eq i32 %34, 0
  br i1 %35, label %ossl_param_is_empty.exit.thread, label %36

36:                                               ; preds = %31
  %37 = getelementptr inbounds nuw i8, ptr %0, i64 32
  store i32 %34, ptr %37, align 8, !tbaa !29
  br label %ossl_param_is_empty.exit.thread

ossl_param_is_empty.exit.thread:                  ; preds = %6, %26, %36, %31, %28, %25, %ossl_param_is_empty.exit, %2
  %.020 = phi i32 [ 0, %25 ], [ 0, %2 ], [ 1, %ossl_param_is_empty.exit ], [ 0, %28 ], [ 0, %31 ], [ 1, %36 ], [ 1, %26 ], [ 1, %6 ]
  ret i32 %.020
}